target datalayout = "e-m:e-p270:32:32-p271:32:32-p272:64:64-i64:64-i128:128-f80:128-n8:16:32:64-S128"
target triple = "x86_64-pc-linux-gnu"

%struct.xplstate = type { ptr, ptr, i32, i32, i32, i32, [256 x i32], [64 x i32], [64 x i32], i32, i32, i32, i16, i16, [8192 x i8], i32, i8, i8, i8 }

; Function Attrs: nounwind uwtable
define i32 @explode_init(ptr noundef %0, i16 noundef zeroext %1) #0 {
  %3 = alloca ptr, align 8
  %4 = alloca i16, align 2
  store ptr %0, ptr %3, align 8
  store i16 %1, ptr %4, align 2
  %5 = load ptr, ptr %3, align 8
  %6 = getelementptr inbounds %struct.xplstate, ptr %5, i32 0, i32 5
  store i32 0, ptr %6, align 4
  %7 = load ptr, ptr %3, align 8
  %8 = getelementptr inbounds %struct.xplstate, ptr %7, i32 0, i32 16
  store i8 0, ptr %8, align 4
  %9 = load i16, ptr %4, align 2
  %10 = zext i16 %9 to i32
  %11 = and i32 %10, 2
  %12 = icmp ne i32 %11, 0
  br i1 %12, label %13, label %18

13:                                               ; preds = %2
  %14 = load ptr, ptr %3, align 8
  %15 = getelementptr inbounds %struct.xplstate, ptr %14, i32 0, i32 17
  store i8 1, ptr %15, align 1
  %16 = load ptr, ptr %3, align 8
  %17 = getelementptr inbounds %struct.xplstate, ptr %16, i32 0, i32 4
  store i32 8191, ptr %17, align 8
  br label %23

18:                                               ; preds = %2
  %19 = load ptr, ptr %3, align 8
  %20 = getelementptr inbounds %struct.xplstate, ptr %19, i32 0, i32 17
  store i8 0, ptr %20, align 1
  %21 = load ptr, ptr %3, align 8
  %22 = getelementptr inbounds %struct.xplstate, ptr %21, i32 0, i32 4
  store i32 4095, ptr %22, align 8
  br label %23

23:                                               ; preds = %18, %13
  %24 = load i16, ptr %4, align 2
  %25 = zext i16 %24 to i32
  %26 = and i32 %25, 4
  %27 = icmp ne i32 %26, 0
  br i1 %27, label %28, label %35

28:                                               ; preds = %23
  %29 = load ptr, ptr %3, align 8
  %30 = getelementptr inbounds %struct.xplstate, ptr %29, i32 0, i32 15
  store i32 0, ptr %30, align 8
  %31 = load ptr, ptr %3, align 8
  %32 = getelementptr inbounds %struct.xplstate, ptr %31, i32 0, i32 18
  store i8 1, ptr %32, align 2
  %33 = load ptr, ptr %3, align 8
  %34 = getelementptr inbounds %struct.xplstate, ptr %33, i32 0, i32 3
  store i32 3, ptr %34, align 4
  br label %42

35:                                               ; preds = %23
  %36 = load ptr, ptr %3, align 8
  %37 = getelementptr inbounds %struct.xplstate, ptr %36, i32 0, i32 15
  store i32 1, ptr %37, align 8
  %38 = load ptr, ptr %3, align 8
  %39 = getelementptr inbounds %struct.xplstate, ptr %38, i32 0, i32 18
  store i8 0, ptr %39, align 2
  %40 = load ptr, ptr %3, align 8
  %41 = getelementptr inbounds %struct.xplstate, ptr %40, i32 0, i32 3
  store i32 2, ptr %41, align 4
  br label %42

42:                                               ; preds = %35, %28
  %43 = load ptr, ptr %3, align 8
  %44 = getelementptr inbounds %struct.xplstate, ptr %43, i32 0, i32 2
  store i32 0, ptr %44, align 8
  ret i32 0
}