; Function Attrs: mustprogress nofree norecurse nosync nounwind willreturn memory(argmem: write) uwtable
define noundef i32 @explode_init(ptr nocapture noundef writeonly %0, i16 noundef zeroext %1) local_unnamed_addr #0 {
  %3 = getelementptr inbounds i8, ptr %0, i64 28
  store i32 0, ptr %3, align 4
  %4 = getelementptr inbounds i8, ptr %0, i64 9780
  store i8 0, ptr %4, align 4
  %5 = zext i16 %1 to i32
  %6 = and i32 %5, 2
  %.not.not = icmp eq i32 %6, 0
  %.lobit = lshr exact i32 %6, 1
  %spec.select = trunc nuw nsw i32 %.lobit to i8
  %spec.select19 = select i1 %.not.not, i32 4095, i32 8191
  %7 = getelementptr inbounds i8, ptr %0, i64 9781
  store i8 %spec.select, ptr %7, align 1
  %8 = getelementptr inbounds i8, ptr %0, i64 24
  store i32 %spec.select19, ptr %8, align 8
  %9 = and i32 %5, 4
  %.not14.not = icmp eq i32 %9, 0
  %.lobit20 = lshr exact i32 %9, 2
  %.sink18 = xor i32 %.lobit20, 1
  %.lobit21 = lshr exact i32 %9, 2
  %.sink17 = trunc nuw nsw i32 %.lobit21 to i8
  %.sink16 = select i1 %.not14.not, i32 2, i32 3
  %10 = getelementptr inbounds i8, ptr %0, i64 9776
  store i32 %.sink18, ptr %10, align 8
  %11 = getelementptr inbounds i8, ptr %0, i64 9782
  store i8 %.sink17, ptr %11, align 2
  %12 = getelementptr inbounds i8, ptr %0, i64 20
  store i32 %.sink16, ptr %12, align 4
  %13 = getelementptr inbounds i8, ptr %0, i64 16
  store i32 0, ptr %13, align 8
  ret i32 0
}